; Function Attrs: mustprogress uwtable
define internal fastcc noundef ptr @_ZN6opencc12_GLOBAL__N_114ConfigInternal17GetStringPropertyERKN9rapidjson12GenericValueINS2_4UTF8IcEENS2_19MemoryPoolAllocatorINS2_12CrtAllocatorEEEEEPKc(i32 %.0.val, ptr %.8.val, ptr noundef %0) unnamed_addr #3 align 2 personality ptr @__gxx_personality_v0 {
  %2 = alloca %"class.std::__cxx11::basic_string", align 8
  %3 = alloca %"class.std::__cxx11::basic_string", align 8
  %4 = alloca %"class.std::allocator", align 1
  %5 = tail call fastcc noundef nonnull align 8 dereferenceable(16) ptr @_ZN6opencc12_GLOBAL__N_114ConfigInternal11GetPropertyERKN9rapidjson12GenericValueINS2_4UTF8IcEENS2_19MemoryPoolAllocatorINS2_12CrtAllocatorEEEEEPKc(i32 %.0.val, ptr %.8.val, ptr noundef %0)
  %6 = getelementptr inbounds i8, ptr %5, i64 14
  %7 = load i16, ptr %6, align 2
  %8 = and i16 %7, 1024
  %.not = icmp eq i16 %8, 0
  br i1 %.not, label %9, label %22

9:                                                ; preds = %1
  %10 = tail call ptr @__cxa_allocate_exception(i64 40) #23
  call void @_ZNSaIcEC1Ev(ptr noundef nonnull align 1 dereferenceable(1) %4) #23
  invoke void @_ZNSt7__cxx1112basic_stringIcSt11char_traitsIcESaIcEEC1EPKcRKS3_(ptr noundef nonnull align 8 dereferenceable(32) %3, ptr noundef %0, ptr noundef nonnull align 1 dereferenceable(1) %4)
          to label %11 unwind label %.thread

11:                                               ; preds = %9
  %12 = invoke noundef nonnull align 8 dereferenceable(32) ptr @_ZNSt7__cxx1112basic_stringIcSt11char_traitsIcESaIcEE6insertEmPKc(ptr noundef nonnull align 8 dereferenceable(32) %3, i64 noundef 0, ptr noundef nonnull @.str.15)
          to label %13 unwind label %16

13:                                               ; preds = %11
  call void @_ZNSt7__cxx1112basic_stringIcSt11char_traitsIcESaIcEEC1EOS4_(ptr noundef nonnull align 8 dereferenceable(32) %2, ptr noundef nonnull align 8 dereferenceable(32) %12) #23
  invoke void @_ZN6opencc13InvalidFormatC2ERKNSt7__cxx1112basic_stringIcSt11char_traitsIcESaIcEEE(ptr noundef nonnull align 8 dereferenceable(40) %10, ptr noundef nonnull align 8 dereferenceable(32) %2)
          to label %14 unwind label %18

14:                                               ; preds = %13
  invoke void @__cxa_throw(ptr nonnull %10, ptr nonnull @_ZTIN6opencc13InvalidFormatE, ptr nonnull @_ZN6opencc13InvalidFormatD2Ev) #25
          to label %31 unwind label %18

.thread:                                          ; preds = %9
  %15 = landingpad { ptr, i32 }
          cleanup
  call void @_ZNSaIcED1Ev(ptr noundef nonnull align 1 dereferenceable(1) %4) #23
  br label %21

16:                                               ; preds = %11
  %17 = landingpad { ptr, i32 }
          cleanup
  br label %20

18:                                               ; preds = %14, %13
  %.0 = phi i1 [ false, %14 ], [ true, %13 ]
  %19 = landingpad { ptr, i32 }
          cleanup
  call void @_ZNSt7__cxx1112basic_stringIcSt11char_traitsIcESaIcEED1Ev(ptr noundef nonnull align 8 dereferenceable(32) %2) #23
  br label %20

20:                                               ; preds = %16, %18
  %.pn = phi { ptr, i32 } [ %19, %18 ], [ %17, %16 ]
  %.1 = phi i1 [ %.0, %18 ], [ true, %16 ]
  call void @_ZNSt7__cxx1112basic_stringIcSt11char_traitsIcESaIcEED1Ev(ptr noundef nonnull align 8 dereferenceable(32) %3) #23
  call void @_ZNSaIcED1Ev(ptr noundef nonnull align 1 dereferenceable(1) %4) #23
  br i1 %.1, label %21, label %30

21:                                               ; preds = %.thread, %20
  %.pn.pn4 = phi { ptr, i32 } [ %15, %.thread ], [ %.pn, %20 ]
  call void @__cxa_free_exception(ptr %10) #23
  br label %30

22:                                               ; preds = %1
  %23 = and i16 %7, 4096
  %.not.i = icmp eq i16 %23, 0
  %24 = getelementptr inbounds i8, ptr %5, i64 8
  %25 = load ptr, ptr %24, align 8
  %26 = ptrtoint ptr %25 to i64
  %27 = and i64 %26, 281474976710655
  %28 = inttoptr i64 %27 to ptr
  %29 = select i1 %.not.i, ptr %28, ptr %5
  ret ptr %29

30:                                               ; preds = %20, %21
  %.pn.pn3 = phi { ptr, i32 } [ %.pn, %20 ], [ %.pn.pn4, %21 ]
  resume { ptr, i32 } %.pn.pn3

31:                                               ; preds = %14
  unreachable
}